target datalayout = "e-m:e-p270:32:32-p271:32:32-p272:64:64-i64:64-i128:128-f80:128-n8:16:32:64-S128"
target triple = "x86_64-pc-linux-gnu"

%"class.gmx::CorrelationTensor" = type { %"class.std::vector" }
%"class.std::vector" = type { %"struct.std::_Vector_base" }
%"struct.std::_Vector_base" = type { %"struct.std::_Vector_base<gmx::CorrelationBlockData, std::allocator<gmx::CorrelationBlockData>>::_Vector_impl" }
%"struct.std::_Vector_base<gmx::CorrelationBlockData, std::allocator<gmx::CorrelationBlockData>>::_Vector_impl" = type { %"struct.std::_Vector_base<gmx::CorrelationBlockData, std::allocator<gmx::CorrelationBlockData>>::_Vector_impl_data" }
%"struct.std::_Vector_base<gmx::CorrelationBlockData, std::allocator<gmx::CorrelationBlockData>>::_Vector_impl_data" = type { ptr, ptr, ptr }
%"class.gmx::CorrelationBlockData" = type { double, double, double, double, double, i32, %"class.std::vector.0", %"class.std::vector.5" }
%"class.std::vector.0" = type { %"struct.std::_Vector_base.1" }
%"struct.std::_Vector_base.1" = type { %"struct.std::_Vector_base<gmx::CorrelationBlockData::CoordData, std::allocator<gmx::CorrelationBlockData::CoordData>>::_Vector_impl" }
%"struct.std::_Vector_base<gmx::CorrelationBlockData::CoordData, std::allocator<gmx::CorrelationBlockData::CoordData>>::_Vector_impl" = type { %"struct.std::_Vector_base<gmx::CorrelationBlockData::CoordData, std::allocator<gmx::CorrelationBlockData::CoordData>>::_Vector_impl_data" }
%"struct.std::_Vector_base<gmx::CorrelationBlockData::CoordData, std::allocator<gmx::CorrelationBlockData::CoordData>>::_Vector_impl_data" = type { ptr, ptr, ptr }
%"class.std::vector.5" = type { %"struct.std::_Vector_base.6" }
%"struct.std::_Vector_base.6" = type { %"struct.std::_Vector_base<double, std::allocator<double>>::_Vector_impl" }
%"struct.std::_Vector_base<double, std::allocator<double>>::_Vector_impl" = type { %"struct.std::_Vector_base<double, std::allocator<double>>::_Vector_impl_data" }
%"struct.std::_Vector_base<double, std::allocator<double>>::_Vector_impl_data" = type { ptr, ptr, ptr }

; Function Attrs: mustprogress nounwind uwtable
define linkonce_odr noundef nonnull align 8 dereferenceable(8) ptr @_ZNKSt6vectorIdSaIdEEixEm(ptr noundef nonnull align 8 dereferenceable(24) %0, i64 noundef %1) #2 comdat align 2 {
  %3 = alloca ptr, align 8
  %4 = alloca i64, align 8
  store ptr %0, ptr %3, align 8, !tbaa !41
  store i64 %1, ptr %4, align 8, !tbaa !13
  %5 = load ptr, ptr %3, align 8
  %6 = getelementptr inbounds nuw %"struct.std::_Vector_base.6", ptr %5, i32 0, i32 0
  %7 = getelementptr inbounds nuw %"struct.std::_Vector_base<double, std::allocator<double>>::_Vector_impl_data", ptr %6, i32 0, i32 0
  %8 = load ptr, ptr %7, align 8, !tbaa !43
  %9 = load i64, ptr %4, align 8, !tbaa !13
  %10 = getelementptr inbounds nuw double, ptr %8, i64 %9
  ret ptr %10
}

; Function Attrs: mustprogress nounwind uwtable
define linkonce_odr noundef nonnull align 8 dereferenceable(24) ptr @_ZNK3gmx20CorrelationBlockData19correlationIntegralEv(ptr noundef nonnull align 8 dereferenceable(96) %0) #2 comdat align 2 {
  %2 = alloca ptr, align 8
  store ptr %0, ptr %2, align 8, !tbaa !24
  %3 = load ptr, ptr %2, align 8
  %4 = getelementptr inbounds nuw %"class.gmx::CorrelationBlockData", ptr %3, i32 0, i32 7
  ret ptr %4
}

; Function Attrs: mustprogress nounwind uwtable
define linkonce_odr noundef double @_ZNK3gmx20CorrelationBlockData30sumOverBlocksBlockSquareWeightEv(ptr noundef nonnull align 8 dereferenceable(96) %0) #2 comdat align 2 {
  %2 = alloca ptr, align 8
  store ptr %0, ptr %2, align 8, !tbaa !24
  %3 = load ptr, ptr %2, align 8
  %4 = getelementptr inbounds nuw %"class.gmx::CorrelationBlockData", ptr %3, i32 0, i32 3
  %5 = load double, ptr %4, align 8, !tbaa !30
  ret double %5
}

; Function Attrs: mustprogress nounwind uwtable
define linkonce_odr noundef nonnull align 8 dereferenceable(96) ptr @_ZNKSt6vectorIN3gmx20CorrelationBlockDataESaIS1_EEixEm(ptr noundef nonnull align 8 dereferenceable(24) %0, i64 noundef %1) #2 comdat align 2 {
  %3 = alloca ptr, align 8
  %4 = alloca i64, align 8
  store ptr %0, ptr %3, align 8, !tbaa !26
  store i64 %1, ptr %4, align 8, !tbaa !13
  %5 = load ptr, ptr %3, align 8
  %6 = getelementptr inbounds nuw %"struct.std::_Vector_base", ptr %5, i32 0, i32 0
  %7 = getelementptr inbounds nuw %"struct.std::_Vector_base<gmx::CorrelationBlockData, std::allocator<gmx::CorrelationBlockData>>::_Vector_impl_data", ptr %6, i32 0, i32 0
  %8 = load ptr, ptr %7, align 8, !tbaa !28
  %9 = load i64, ptr %4, align 8, !tbaa !13
  %10 = getelementptr inbounds nuw %"class.gmx::CorrelationBlockData", ptr %8, i64 %9
  ret ptr %10
}

; Function Attrs: mustprogress uwtable
define noundef double @_ZNK3gmx17CorrelationTensor15getTimeIntegralEid(ptr noundef nonnull align 8 dereferenceable(24) %0, i32 noundef %1, double noundef %2) #0 align 2 {
  %4 = alloca ptr, align 8
  %5 = alloca i32, align 4
  %6 = alloca double, align 8
  %7 = alloca ptr, align 8
  %8 = alloca double, align 8
  %9 = alloca double, align 8
  store ptr %0, ptr %4, align 8, !tbaa !22
  store i32 %1, ptr %5, align 4, !tbaa !8
  store double %2, ptr %6, align 8, !tbaa !4
  %10 = load ptr, ptr %4, align 8
  call void @llvm.lifetime.start.p0(i64 8, ptr %7) #15
  %11 = getelementptr inbounds nuw %"class.gmx::CorrelationTensor", ptr %10, i32 0, i32 0
  %12 = call noundef nonnull align 8 dereferenceable(96) ptr @_ZNKSt6vectorIN3gmx20CorrelationBlockDataESaIS1_EEixEm(ptr noundef nonnull align 8 dereferenceable(24) %11, i64 noundef 0) #15
  store ptr %12, ptr %7, align 8, !tbaa !24
  call void @llvm.lifetime.start.p0(i64 8, ptr %8) #15
  %13 = load ptr, ptr %7, align 8, !tbaa !24
  %14 = call noundef double @_ZNK3gmx20CorrelationBlockData30sumOverBlocksBlockSquareWeightEv(ptr noundef nonnull align 8 dereferenceable(96) %13)
  store double %14, ptr %8, align 8, !tbaa !4
  call void @llvm.lifetime.start.p0(i64 8, ptr %9) #15
  store double 0.000000e+00, ptr %9, align 8, !tbaa !4
  %15 = load double, ptr %8, align 8, !tbaa !4
  %16 = fcmp ogt double %15, 0.000000e+00
  br i1 %16, label %17, label %26

17:                                               ; preds = %3
  %18 = load ptr, ptr %7, align 8, !tbaa !24
  %19 = call noundef nonnull align 8 dereferenceable(24) ptr @_ZNK3gmx20CorrelationBlockData19correlationIntegralEv(ptr noundef nonnull align 8 dereferenceable(96) %18)
  %20 = load i32, ptr %5, align 4, !tbaa !8
  %21 = sext i32 %20 to i64
  %22 = call noundef nonnull align 8 dereferenceable(8) ptr @_ZNKSt6vectorIdSaIdEEixEm(ptr noundef nonnull align 8 dereferenceable(24) %19, i64 noundef %21) #15
  %23 = load double, ptr %22, align 8, !tbaa !4
  %24 = load double, ptr %8, align 8, !tbaa !4
  %25 = fdiv double %23, %24
  store double %25, ptr %9, align 8, !tbaa !4
  br label %26

26:                                               ; preds = %17, %3
  %27 = load double, ptr %9, align 8, !tbaa !4
  %28 = fmul double 5.000000e-01, %27
  %29 = load double, ptr %6, align 8, !tbaa !4
  %30 = fmul double %28, %29
  call void @llvm.lifetime.end.p0(i64 8, ptr %9) #15
  call void @llvm.lifetime.end.p0(i64 8, ptr %8) #15
  call void @llvm.lifetime.end.p0(i64 8, ptr %7) #15
  ret double %30
}