; Function Attrs: mustprogress nofree norecurse nosync nounwind willreturn memory(read, inaccessiblemem: none) uwtable
define noundef double @_ZNK3gmx17CorrelationTensor15getTimeIntegralEid(ptr noundef nonnull readonly align 8 captures(none) dereferenceable(24) %0, i32 noundef %1, double noundef %2) local_unnamed_addr #5 align 2 {
  %4 = load ptr, ptr %0, align 8, !tbaa !10
  %5 = getelementptr inbounds nuw i8, ptr %4, i64 24
  %6 = load double, ptr %5, align 8, !tbaa !14
  %7 = fcmp ogt double %6, 0.000000e+00
  br i1 %7, label %8, label %16

8:                                                ; preds = %3
  %9 = getelementptr inbounds nuw i8, ptr %4, i64 72
  %10 = sext i32 %1 to i64
  %11 = load ptr, ptr %9, align 8, !tbaa !26
  %12 = getelementptr inbounds nuw double, ptr %11, i64 %10
  %13 = load double, ptr %12, align 8, !tbaa !4
  %14 = fdiv double %13, %6
  %15 = fmul double %14, 5.000000e-01
  br label %16

16:                                               ; preds = %8, %3
  %.0 = phi double [ %15, %8 ], [ 0.000000e+00, %3 ]
  %17 = fmul double %2, %.0
  ret double %17
}